; ModuleID = '16/964.c'
source_filename = "16/964.c"
target datalayout = "e-m:e-p270:32:32-p271:32:32-p272:64:64-i64:64-f80:128-n8:16:32:64-S128"
target triple = "x86_64-pc-linux-gnu"

@.str = private unnamed_addr constant [3 x i8] c"%d\00", align 1
@.str.1 = private unnamed_addr constant [7 x i8] c"00001\0A\00", align 1
@.str.2 = private unnamed_addr constant [10 x i8] c"%d%d%d%d\0A\00", align 1
@.str.3 = private unnamed_addr constant [8 x i8] c"%d%d%d\0A\00", align 1
@.str.4 = private unnamed_addr constant [6 x i8] c"%d%d\0A\00", align 1
@.str.5 = private unnamed_addr constant [4 x i8] c"%d\0A\00", align 1

; Function Attrs: noinline nounwind uwtable
define dso_local void @main() #0 {
  %1 = alloca i32, align 4
  %2 = alloca i32, align 4
  %3 = alloca i32, align 4
  %4 = alloca i32, align 4
  %5 = alloca i32, align 4
  %6 = call i32 (i8*, ...) @__isoc99_scanf(i8* getelementptr inbounds ([3 x i8], [3 x i8]* @.str, i64 0, i64 0), i32* %1)
  %7 = load i32, i32* %1, align 4
  %8 = icmp eq i32 %7, 10000
  br i1 %8, label %9, label %11

9:                                                ; preds = %0
  %10 = call i32 (i8*, ...) @printf(i8* getelementptr inbounds ([7 x i8], [7 x i8]* @.str.1, i64 0, i64 0))
  br label %66

11:                                               ; preds = %0
  %12 = load i32, i32* %1, align 4
  %13 = sdiv i32 %12, 1000
  store i32 %13, i32* %2, align 4
  %14 = load i32, i32* %1, align 4
  %15 = load i32, i32* %2, align 4
  %16 = mul nsw i32 %15, 1000
  %17 = sub nsw i32 %14, %16
  %18 = sdiv i32 %17, 100
  store i32 %18, i32* %3, align 4
  %19 = load i32, i32* %1, align 4
  %20 = load i32, i32* %2, align 4
  %21 = mul nsw i32 %20, 1000
  %22 = sub nsw i32 %19, %21
  %23 = load i32, i32* %3, align 4
  %24 = mul nsw i32 %23, 100
  %25 = sub nsw i32 %22, %24
  %26 = sdiv i32 %25, 10
  store i32 %26, i32* %4, align 4
  %27 = load i32, i32* %1, align 4
  %28 = load i32, i32* %2, align 4
  %29 = mul nsw i32 %28, 1000
  %30 = sub nsw i32 %27, %29
  %31 = load i32, i32* %3, align 4
  %32 = mul nsw i32 %31, 100
  %33 = sub nsw i32 %30, %32
  %34 = load i32, i32* %4, align 4
  %35 = mul nsw i32 %34, 10
  %36 = sub nsw i32 %33, %35
  store i32 %36, i32* %5, align 4
  %37 = load i32, i32* %2, align 4
  %38 = icmp ne i32 %37, 0
  br i1 %38, label %39, label %45

39:                                               ; preds = %11
  %40 = load i32, i32* %5, align 4
  %41 = load i32, i32* %4, align 4
  %42 = load i32, i32* %3, align 4
  %43 = load i32, i32* %2, align 4
  %44 = call i32 (i8*, ...) @printf(i8* getelementptr inbounds ([10 x i8], [10 x i8]* @.str.2, i64 0, i64 0), i32 %40, i32 %41, i32 %42, i32 %43)
  br label %65

45:                                               ; preds = %11
  %46 = load i32, i32* %3, align 4
  %47 = icmp ne i32 %46, 0
  br i1 %47, label %48, label %53

48:                                               ; preds = %45
  %49 = load i32, i32* %5, align 4
  %50 = load i32, i32* %4, align 4
  %51 = load i32, i32* %3, align 4
  %52 = call i32 (i8*, ...) @printf(i8* getelementptr inbounds ([8 x i8], [8 x i8]* @.str.3, i64 0, i64 0), i32 %49, i32 %50, i32 %51)
  br label %64

53:                                               ; preds = %45
  %54 = load i32, i32* %4, align 4
  %55 = icmp ne i32 %54, 0
  br i1 %55, label %56, label %60

56:                                               ; preds = %53
  %57 = load i32, i32* %5, align 4
  %58 = load i32, i32* %4, align 4
  %59 = call i32 (i8*, ...) @printf(i8* getelementptr inbounds ([6 x i8], [6 x i8]* @.str.4, i64 0, i64 0), i32 %57, i32 %58)
  br label %63

60:                                               ; preds = %53
  %61 = load i32, i32* %5, align 4
  %62 = call i32 (i8*, ...) @printf(i8* getelementptr inbounds ([4 x i8], [4 x i8]* @.str.5, i64 0, i64 0), i32 %61)
  br label %63

63:                                               ; preds = %60, %56
  br label %64

64:                                               ; preds = %63, %48
  br label %65

65:                                               ; preds = %64, %39
  br label %66

66:                                               ; preds = %65, %9
  ret void
}

declare dso_local i32 @__isoc99_scanf(i8*, ...) #1

declare dso_local i32 @printf(i8*, ...) #1


!llvm.module.flags = !{!0}
!llvm.ident = !{!1}

!0 = !{i32 1, !"wchar_size", i32 4}
!1 = !{!"clang version 10.0.0-4ubuntu1 "}
